
compare:     file format elf64-x86-64


Disassembly of section .init:

0000000000001000 <_init>:
    1000:	48 83 ec 08          	sub    $0x8,%rsp
    1004:	48 8b 05 dd 2f 00 00 	mov    0x2fdd(%rip),%rax        # 3fe8 <__gmon_start__>
    100b:	48 85 c0             	test   %rax,%rax
    100e:	74 02                	je     1012 <_init+0x12>
    1010:	ff d0                	callq  *%rax
    1012:	48 83 c4 08          	add    $0x8,%rsp
    1016:	c3                   	retq   

Disassembly of section .plt:

0000000000001020 <.plt>:
    1020:	ff 35 e2 2f 00 00    	pushq  0x2fe2(%rip)        # 4008 <_GLOBAL_OFFSET_TABLE_+0x8>
    1026:	ff 25 e4 2f 00 00    	jmpq   *0x2fe4(%rip)        # 4010 <_GLOBAL_OFFSET_TABLE_+0x10>
    102c:	0f 1f 40 00          	nopl   0x0(%rax)

0000000000001030 <_ZNSt7__cxx1112basic_stringIcSt11char_traitsIcESaIcEE9_M_appendEPKcm@plt>:
    1030:	ff 25 e2 2f 00 00    	jmpq   *0x2fe2(%rip)        # 4018 <_ZNSt7__cxx1112basic_stringIcSt11char_traitsIcESaIcEE9_M_appendEPKcm@GLIBCXX_3.4.21>
    1036:	68 00 00 00 00       	pushq  $0x0
    103b:	e9 e0 ff ff ff       	jmpq   1020 <.plt>

0000000000001040 <clock@plt>:
    1040:	ff 25 da 2f 00 00    	jmpq   *0x2fda(%rip)        # 4020 <clock@GLIBC_2.2.5>
    1046:	68 01 00 00 00       	pushq  $0x1
    104b:	e9 d0 ff ff ff       	jmpq   1020 <.plt>

0000000000001050 <_ZNSo9_M_insertImEERSoT_@plt>:
    1050:	ff 25 d2 2f 00 00    	jmpq   *0x2fd2(%rip)        # 4028 <_ZNSo9_M_insertImEERSoT_@GLIBCXX_3.4.9>
    1056:	68 02 00 00 00       	pushq  $0x2
    105b:	e9 c0 ff ff ff       	jmpq   1020 <.plt>

0000000000001060 <_ZSt19__throw_logic_errorPKc@plt>:
    1060:	ff 25 ca 2f 00 00    	jmpq   *0x2fca(%rip)        # 4030 <_ZSt19__throw_logic_errorPKc@GLIBCXX_3.4>
    1066:	68 03 00 00 00       	pushq  $0x3
    106b:	e9 b0 ff ff ff       	jmpq   1020 <.plt>

0000000000001070 <memcpy@plt>:
    1070:	ff 25 c2 2f 00 00    	jmpq   *0x2fc2(%rip)        # 4038 <memcpy@GLIBC_2.14>
    1076:	68 04 00 00 00       	pushq  $0x4
    107b:	e9 a0 ff ff ff       	jmpq   1020 <.plt>

0000000000001080 <__cxa_atexit@plt>:
    1080:	ff 25 ba 2f 00 00    	jmpq   *0x2fba(%rip)        # 4040 <__cxa_atexit@GLIBC_2.2.5>
    1086:	68 05 00 00 00       	pushq  $0x5
    108b:	e9 90 ff ff ff       	jmpq   1020 <.plt>

0000000000001090 <_ZNSo9_M_insertIlEERSoT_@plt>:
    1090:	ff 25 b2 2f 00 00    	jmpq   *0x2fb2(%rip)        # 4048 <_ZNSo9_M_insertIlEERSoT_@GLIBCXX_3.4.9>
    1096:	68 06 00 00 00       	pushq  $0x6
    109b:	e9 80 ff ff ff       	jmpq   1020 <.plt>

00000000000010a0 <_ZStlsISt11char_traitsIcEERSt13basic_ostreamIcT_ES5_PKc@plt>:
    10a0:	ff 25 aa 2f 00 00    	jmpq   *0x2faa(%rip)        # 4050 <_ZStlsISt11char_traitsIcEERSt13basic_ostreamIcT_ES5_PKc@GLIBCXX_3.4>
    10a6:	68 07 00 00 00       	pushq  $0x7
    10ab:	e9 70 ff ff ff       	jmpq   1020 <.plt>

00000000000010b0 <_ZdlPvm@plt>:
    10b0:	ff 25 a2 2f 00 00    	jmpq   *0x2fa2(%rip)        # 4058 <_ZdlPvm@CXXABI_1.3.9>
    10b6:	68 08 00 00 00       	pushq  $0x8
    10bb:	e9 60 ff ff ff       	jmpq   1020 <.plt>

00000000000010c0 <_ZSt16__ostream_insertIcSt11char_traitsIcEERSt13basic_ostreamIT_T0_ES6_PKS3_l@plt>:
    10c0:	ff 25 9a 2f 00 00    	jmpq   *0x2f9a(%rip)        # 4060 <_ZSt16__ostream_insertIcSt11char_traitsIcEERSt13basic_ostreamIT_T0_ES6_PKS3_l@GLIBCXX_3.4.9>
    10c6:	68 09 00 00 00       	pushq  $0x9
    10cb:	e9 50 ff ff ff       	jmpq   1020 <.plt>

00000000000010d0 <_ZNSt7__cxx1112basic_stringIcSt11char_traitsIcESaIcEE12_M_constructEmc@plt>:
    10d0:	ff 25 92 2f 00 00    	jmpq   *0x2f92(%rip)        # 4068 <_ZNSt7__cxx1112basic_stringIcSt11char_traitsIcESaIcEE12_M_constructEmc@GLIBCXX_3.4.21>
    10d6:	68 0a 00 00 00       	pushq  $0xa
    10db:	e9 40 ff ff ff       	jmpq   1020 <.plt>

00000000000010e0 <_ZNSt7__cxx1112basic_stringIcSt11char_traitsIcESaIcEE10_M_disposeEv@plt>:
    10e0:	ff 25 8a 2f 00 00    	jmpq   *0x2f8a(%rip)        # 4070 <_ZNSt7__cxx1112basic_stringIcSt11char_traitsIcESaIcEE10_M_disposeEv@GLIBCXX_3.4.21>
    10e6:	68 0b 00 00 00       	pushq  $0xb
    10eb:	e9 30 ff ff ff       	jmpq   1020 <.plt>

00000000000010f0 <_ZNSt8ios_base4InitC1Ev@plt>:
    10f0:	ff 25 82 2f 00 00    	jmpq   *0x2f82(%rip)        # 4078 <_ZNSt8ios_base4InitC1Ev@GLIBCXX_3.4>
    10f6:	68 0c 00 00 00       	pushq  $0xc
    10fb:	e9 20 ff ff ff       	jmpq   1020 <.plt>

0000000000001100 <_Unwind_Resume@plt>:
    1100:	ff 25 7a 2f 00 00    	jmpq   *0x2f7a(%rip)        # 4080 <_Unwind_Resume@GCC_3.0>
    1106:	68 0d 00 00 00       	pushq  $0xd
    110b:	e9 10 ff ff ff       	jmpq   1020 <.plt>

0000000000001110 <_ZNSt7__cxx1112basic_stringIcSt11char_traitsIcESaIcEE9_M_createERmm@plt>:
    1110:	ff 25 72 2f 00 00    	jmpq   *0x2f72(%rip)        # 4088 <_ZNSt7__cxx1112basic_stringIcSt11char_traitsIcESaIcEE9_M_createERmm@GLIBCXX_3.4.21>
    1116:	68 0e 00 00 00       	pushq  $0xe
    111b:	e9 00 ff ff ff       	jmpq   1020 <.plt>

Disassembly of section .plt.got:

0000000000001120 <__cxa_finalize@plt>:
    1120:	ff 25 aa 2e 00 00    	jmpq   *0x2eaa(%rip)        # 3fd0 <__cxa_finalize@GLIBC_2.2.5>
    1126:	66 90                	xchg   %ax,%ax

Disassembly of section .text:

0000000000001130 <main.cold>:
    1130:	4c 89 ff             	mov    %r15,%rdi
    1133:	e8 a8 ff ff ff       	callq  10e0 <_ZNSt7__cxx1112basic_stringIcSt11char_traitsIcESaIcEE10_M_disposeEv@plt>
    1138:	4c 89 f7             	mov    %r14,%rdi
    113b:	e8 a0 ff ff ff       	callq  10e0 <_ZNSt7__cxx1112basic_stringIcSt11char_traitsIcESaIcEE10_M_disposeEv@plt>
    1140:	4c 89 ef             	mov    %r13,%rdi
    1143:	e8 98 ff ff ff       	callq  10e0 <_ZNSt7__cxx1112basic_stringIcSt11char_traitsIcESaIcEE10_M_disposeEv@plt>
    1148:	4c 89 e7             	mov    %r12,%rdi
    114b:	e8 90 ff ff ff       	callq  10e0 <_ZNSt7__cxx1112basic_stringIcSt11char_traitsIcESaIcEE10_M_disposeEv@plt>
    1150:	48 8b 7c 24 50       	mov    0x50(%rsp),%rdi
    1155:	e8 86 ff ff ff       	callq  10e0 <_ZNSt7__cxx1112basic_stringIcSt11char_traitsIcESaIcEE10_M_disposeEv@plt>
    115a:	48 89 ef             	mov    %rbp,%rdi
    115d:	48 89 dd             	mov    %rbx,%rbp
    1160:	e8 7b ff ff ff       	callq  10e0 <_ZNSt7__cxx1112basic_stringIcSt11char_traitsIcESaIcEE10_M_disposeEv@plt>
    1165:	48 8b 7c 24 38       	mov    0x38(%rsp),%rdi
    116a:	e8 71 ff ff ff       	callq  10e0 <_ZNSt7__cxx1112basic_stringIcSt11char_traitsIcESaIcEE10_M_disposeEv@plt>
    116f:	48 8b 7c 24 58       	mov    0x58(%rsp),%rdi
    1174:	e8 67 ff ff ff       	callq  10e0 <_ZNSt7__cxx1112basic_stringIcSt11char_traitsIcESaIcEE10_M_disposeEv@plt>
    1179:	48 89 ef             	mov    %rbp,%rdi
    117c:	e8 7f ff ff ff       	callq  1100 <_Unwind_Resume@plt>
    1181:	4c 89 ff             	mov    %r15,%rdi
    1184:	e8 57 ff ff ff       	callq  10e0 <_ZNSt7__cxx1112basic_stringIcSt11char_traitsIcESaIcEE10_M_disposeEv@plt>
    1189:	eb b5                	jmp    1140 <main.cold+0x10>
    118b:	0f 1f 44 00 00       	nopl   0x0(%rax,%rax,1)

0000000000001190 <main>:
    1190:	41 57                	push   %r15
    1192:	31 d2                	xor    %edx,%edx
    1194:	41 56                	push   %r14
    1196:	41 55                	push   %r13
    1198:	41 54                	push   %r12
    119a:	55                   	push   %rbp
    119b:	53                   	push   %rbx
    119c:	48 81 ec 78 01 00 00 	sub    $0x178,%rsp
    11a3:	4c 8d bc 24 50 01 00 	lea    0x150(%rsp),%r15
    11aa:	00 
    11ab:	48 8d 7c 24 70       	lea    0x70(%rsp),%rdi
    11b0:	48 c7 84 24 50 01 00 	movq   $0x58,0x150(%rsp)
    11b7:	00 58 00 00 00 
    11bc:	48 8d 84 24 80 00 00 	lea    0x80(%rsp),%rax
    11c3:	00 
    11c4:	4c 89 fe             	mov    %r15,%rsi
    11c7:	48 89 7c 24 58       	mov    %rdi,0x58(%rsp)
    11cc:	48 89 44 24 70       	mov    %rax,0x70(%rsp)
    11d1:	e8 3a ff ff ff       	callq  1110 <_ZNSt7__cxx1112basic_stringIcSt11char_traitsIcESaIcEE9_M_createERmm@plt>
    11d6:	48 8b 94 24 50 01 00 	mov    0x150(%rsp),%rdx
    11dd:	00 
    11de:	66 0f 6f 05 da 0e 00 	movdqa 0xeda(%rip),%xmm0        # 20c0 <_IO_stdin_used+0xc0>
    11e5:	00 
    11e6:	48 b9 65 72 74 20 79 	movabs $0xa756f7920747265,%rcx
    11ed:	6f 75 0a 
    11f0:	48 89 44 24 70       	mov    %rax,0x70(%rsp)
    11f5:	48 89 94 24 80 00 00 	mov    %rdx,0x80(%rsp)
    11fc:	00 
    11fd:	0f 11 00             	movups %xmm0,(%rax)
    1200:	66 0f 6f 05 c8 0e 00 	movdqa 0xec8(%rip),%xmm0        # 20d0 <_IO_stdin_used+0xd0>
    1207:	00 
    1208:	48 8b 54 24 70       	mov    0x70(%rsp),%rdx
    120d:	48 89 48 50          	mov    %rcx,0x50(%rax)
    1211:	0f 11 40 10          	movups %xmm0,0x10(%rax)
    1215:	66 0f 6f 05 c3 0e 00 	movdqa 0xec3(%rip),%xmm0        # 20e0 <_IO_stdin_used+0xe0>
    121c:	00 
    121d:	c7 44 24 44 90 01 00 	movl   $0x190,0x44(%rsp)
    1224:	00 
    1225:	0f 11 40 20          	movups %xmm0,0x20(%rax)
    1229:	66 0f 6f 05 bf 0e 00 	movdqa 0xebf(%rip),%xmm0        # 20f0 <_IO_stdin_used+0xf0>
    1230:	00 
    1231:	0f 11 40 30          	movups %xmm0,0x30(%rax)
    1235:	66 0f 6f 05 c3 0e 00 	movdqa 0xec3(%rip),%xmm0        # 2100 <_IO_stdin_used+0x100>
    123c:	00 
    123d:	0f 11 40 40          	movups %xmm0,0x40(%rax)
    1241:	48 8b 84 24 50 01 00 	mov    0x150(%rsp),%rax
    1248:	00 
    1249:	48 89 44 24 78       	mov    %rax,0x78(%rsp)
    124e:	c6 04 02 00          	movb   $0x0,(%rdx,%rax,1)
    1252:	48 8d 84 24 90 00 00 	lea    0x90(%rsp),%rax
    1259:	00 
    125a:	48 89 44 24 38       	mov    %rax,0x38(%rsp)
    125f:	48 8d 84 24 a0 00 00 	lea    0xa0(%rsp),%rax
    1266:	00 
    1267:	48 89 44 24 08       	mov    %rax,0x8(%rsp)
    126c:	48 8d 44 24 6f       	lea    0x6f(%rsp),%rax
    1271:	48 89 44 24 48       	mov    %rax,0x48(%rsp)
    1276:	66 2e 0f 1f 84 00 00 	nopw   %cs:0x0(%rax,%rax,1)
    127d:	00 00 00 
    1280:	48 8b 44 24 08       	mov    0x8(%rsp),%rax
    1285:	48 8b 7c 24 38       	mov    0x38(%rsp),%rdi
    128a:	31 d2                	xor    %edx,%edx
    128c:	be 14 00 00 00       	mov    $0x14,%esi
    1291:	48 89 84 24 90 00 00 	mov    %rax,0x90(%rsp)
    1298:	00 
    1299:	e8 32 fe ff ff       	callq  10d0 <_ZNSt7__cxx1112basic_stringIcSt11char_traitsIcESaIcEE12_M_constructEmc@plt>
    129e:	ba 06 00 00 00       	mov    $0x6,%edx
    12a3:	48 8d 35 88 0d 00 00 	lea    0xd88(%rip),%rsi        # 2032 <_IO_stdin_used+0x32>
    12aa:	48 8d 3d 0f 2e 00 00 	lea    0x2e0f(%rip),%rdi        # 40c0 <_ZSt4cout@@GLIBCXX_3.4>
    12b1:	e8 0a fe ff ff       	callq  10c0 <_ZSt16__ostream_insertIcSt11char_traitsIcEERSt13basic_ostreamIT_T0_ES6_PKS3_l@plt>
    12b6:	48 8b 74 24 78       	mov    0x78(%rsp),%rsi
    12bb:	48 8d 3d fe 2d 00 00 	lea    0x2dfe(%rip),%rdi        # 40c0 <_ZSt4cout@@GLIBCXX_3.4>
    12c2:	e8 89 fd ff ff       	callq  1050 <_ZNSo9_M_insertImEERSoT_@plt>
    12c7:	48 8b 74 24 48       	mov    0x48(%rsp),%rsi
    12cc:	48 89 c7             	mov    %rax,%rdi
    12cf:	ba 01 00 00 00       	mov    $0x1,%edx
    12d4:	c6 44 24 6f 0a       	movb   $0xa,0x6f(%rsp)
    12d9:	e8 e2 fd ff ff       	callq  10c0 <_ZSt16__ostream_insertIcSt11char_traitsIcEERSt13basic_ostreamIT_T0_ES6_PKS3_l@plt>
    12de:	48 8d ac 24 b0 00 00 	lea    0xb0(%rsp),%rbp
    12e5:	00 
    12e6:	48 8d 15 64 0d 00 00 	lea    0xd64(%rip),%rdx        # 2051 <_IO_stdin_used+0x51>
    12ed:	48 8d 84 24 c0 00 00 	lea    0xc0(%rsp),%rax
    12f4:	00 
    12f5:	48 8d 72 e8          	lea    -0x18(%rdx),%rsi
    12f9:	48 89 ef             	mov    %rbp,%rdi
    12fc:	48 89 44 24 28       	mov    %rax,0x28(%rsp)
    1301:	48 89 84 24 b0 00 00 	mov    %rax,0xb0(%rsp)
    1308:	00 
    1309:	e8 02 06 00 00       	callq  1910 <_ZNSt7__cxx1112basic_stringIcSt11char_traitsIcESaIcEE12_M_constructIPKcEEvT_S8_St20forward_iterator_tag.isra.0>
    130e:	ba 09 00 00 00       	mov    $0x9,%edx
    1313:	48 8d 35 38 0d 00 00 	lea    0xd38(%rip),%rsi        # 2052 <_IO_stdin_used+0x52>
    131a:	48 8d 3d 9f 2d 00 00 	lea    0x2d9f(%rip),%rdi        # 40c0 <_ZSt4cout@@GLIBCXX_3.4>
    1321:	e8 9a fd ff ff       	callq  10c0 <_ZSt16__ostream_insertIcSt11char_traitsIcEERSt13basic_ostreamIT_T0_ES6_PKS3_l@plt>
    1326:	48 8b 94 24 b8 00 00 	mov    0xb8(%rsp),%rdx
    132d:	00 
    132e:	48 8b b4 24 b0 00 00 	mov    0xb0(%rsp),%rsi
    1335:	00 
    1336:	48 8d 3d 83 2d 00 00 	lea    0x2d83(%rip),%rdi        # 40c0 <_ZSt4cout@@GLIBCXX_3.4>
    133d:	e8 7e fd ff ff       	callq  10c0 <_ZSt16__ostream_insertIcSt11char_traitsIcEERSt13basic_ostreamIT_T0_ES6_PKS3_l@plt>
    1342:	48 8d 15 2c 0d 00 00 	lea    0xd2c(%rip),%rdx        # 2075 <_IO_stdin_used+0x75>
    1349:	48 8d 84 24 e0 00 00 	lea    0xe0(%rsp),%rax
    1350:	00 
    1351:	48 8d bc 24 d0 00 00 	lea    0xd0(%rsp),%rdi
    1358:	00 
    1359:	48 8d 72 e7          	lea    -0x19(%rdx),%rsi
    135d:	48 89 44 24 30       	mov    %rax,0x30(%rsp)
    1362:	48 89 7c 24 50       	mov    %rdi,0x50(%rsp)
    1367:	48 89 84 24 d0 00 00 	mov    %rax,0xd0(%rsp)
    136e:	00 
    136f:	e8 9c 05 00 00       	callq  1910 <_ZNSt7__cxx1112basic_stringIcSt11char_traitsIcESaIcEE12_M_constructIPKcEEvT_S8_St20forward_iterator_tag.isra.0>
    1374:	ba 09 00 00 00       	mov    $0x9,%edx
    1379:	48 8d 35 f6 0c 00 00 	lea    0xcf6(%rip),%rsi        # 2076 <_IO_stdin_used+0x76>
    1380:	48 8d 3d 39 2d 00 00 	lea    0x2d39(%rip),%rdi        # 40c0 <_ZSt4cout@@GLIBCXX_3.4>
    1387:	e8 34 fd ff ff       	callq  10c0 <_ZSt16__ostream_insertIcSt11char_traitsIcEERSt13basic_ostreamIT_T0_ES6_PKS3_l@plt>
    138c:	48 8b 94 24 d8 00 00 	mov    0xd8(%rsp),%rdx
    1393:	00 
    1394:	48 8b b4 24 d0 00 00 	mov    0xd0(%rsp),%rsi
    139b:	00 
    139c:	48 8d 3d 1d 2d 00 00 	lea    0x2d1d(%rip),%rdi        # 40c0 <_ZSt4cout@@GLIBCXX_3.4>
    13a3:	e8 18 fd ff ff       	callq  10c0 <_ZSt16__ostream_insertIcSt11char_traitsIcEERSt13basic_ostreamIT_T0_ES6_PKS3_l@plt>
    13a8:	48 8b 94 24 d8 00 00 	mov    0xd8(%rsp),%rdx
    13af:	00 
    13b0:	48 8b b4 24 d0 00 00 	mov    0xd0(%rsp),%rsi
    13b7:	00 
    13b8:	48 89 ef             	mov    %rbp,%rdi
    13bb:	e8 70 fc ff ff       	callq  1030 <_ZNSt7__cxx1112basic_stringIcSt11char_traitsIcESaIcEE9_M_appendEPKcm@plt>
    13c0:	ba 0a 00 00 00       	mov    $0xa,%edx
    13c5:	48 8d 35 b4 0c 00 00 	lea    0xcb4(%rip),%rsi        # 2080 <_IO_stdin_used+0x80>
    13cc:	48 8d 3d ed 2c 00 00 	lea    0x2ced(%rip),%rdi        # 40c0 <_ZSt4cout@@GLIBCXX_3.4>
    13d3:	e8 e8 fc ff ff       	callq  10c0 <_ZSt16__ostream_insertIcSt11char_traitsIcEERSt13basic_ostreamIT_T0_ES6_PKS3_l@plt>
    13d8:	48 8b 94 24 b8 00 00 	mov    0xb8(%rsp),%rdx
    13df:	00 
    13e0:	48 8b b4 24 b0 00 00 	mov    0xb0(%rsp),%rsi
    13e7:	00 
    13e8:	48 8d 3d d1 2c 00 00 	lea    0x2cd1(%rip),%rdi        # 40c0 <_ZSt4cout@@GLIBCXX_3.4>
    13ef:	e8 cc fc ff ff       	callq  10c0 <_ZSt16__ostream_insertIcSt11char_traitsIcEERSt13basic_ostreamIT_T0_ES6_PKS3_l@plt>
    13f4:	48 8b b4 24 d0 00 00 	mov    0xd0(%rsp),%rsi
    13fb:	00 
    13fc:	48 8b 94 24 d8 00 00 	mov    0xd8(%rsp),%rdx
    1403:	00 
    1404:	4c 8d a4 24 f0 00 00 	lea    0xf0(%rsp),%r12
    140b:	00 
    140c:	48 8d 84 24 00 01 00 	lea    0x100(%rsp),%rax
    1413:	00 
    1414:	4c 89 e7             	mov    %r12,%rdi
    1417:	48 89 44 24 10       	mov    %rax,0x10(%rsp)
    141c:	48 01 f2             	add    %rsi,%rdx
    141f:	48 89 84 24 f0 00 00 	mov    %rax,0xf0(%rsp)
    1426:	00 
    1427:	e8 84 05 00 00       	callq  19b0 <_ZNSt7__cxx1112basic_stringIcSt11char_traitsIcESaIcEE12_M_constructIPcEEvT_S7_St20forward_iterator_tag.isra.0>
    142c:	48 8b 54 24 78       	mov    0x78(%rsp),%rdx
    1431:	48 8b 74 24 70       	mov    0x70(%rsp),%rsi
    1436:	4c 89 e7             	mov    %r12,%rdi
    1439:	e8 f2 fb ff ff       	callq  1030 <_ZNSt7__cxx1112basic_stringIcSt11char_traitsIcESaIcEE9_M_appendEPKcm@plt>
    143e:	ba 09 00 00 00       	mov    $0x9,%edx
    1443:	48 8d 35 41 0c 00 00 	lea    0xc41(%rip),%rsi        # 208b <_IO_stdin_used+0x8b>
    144a:	48 8d 3d 6f 2c 00 00 	lea    0x2c6f(%rip),%rdi        # 40c0 <_ZSt4cout@@GLIBCXX_3.4>
    1451:	e8 6a fc ff ff       	callq  10c0 <_ZSt16__ostream_insertIcSt11char_traitsIcEERSt13basic_ostreamIT_T0_ES6_PKS3_l@plt>
    1456:	48 8b 94 24 f8 00 00 	mov    0xf8(%rsp),%rdx
    145d:	00 
    145e:	48 8b b4 24 f0 00 00 	mov    0xf0(%rsp),%rsi
    1465:	00 
    1466:	48 8d 3d 53 2c 00 00 	lea    0x2c53(%rip),%rdi        # 40c0 <_ZSt4cout@@GLIBCXX_3.4>
    146d:	e8 4e fc ff ff       	callq  10c0 <_ZSt16__ostream_insertIcSt11char_traitsIcEERSt13basic_ostreamIT_T0_ES6_PKS3_l@plt>
    1472:	48 8b 74 24 70       	mov    0x70(%rsp),%rsi
    1477:	48 8b 54 24 78       	mov    0x78(%rsp),%rdx
    147c:	4c 8d ac 24 10 01 00 	lea    0x110(%rsp),%r13
    1483:	00 
    1484:	48 8d 84 24 20 01 00 	lea    0x120(%rsp),%rax
    148b:	00 
    148c:	4c 89 ef             	mov    %r13,%rdi
    148f:	48 89 44 24 18       	mov    %rax,0x18(%rsp)
    1494:	48 01 f2             	add    %rsi,%rdx
    1497:	48 89 84 24 10 01 00 	mov    %rax,0x110(%rsp)
    149e:	00 
    149f:	e8 0c 05 00 00       	callq  19b0 <_ZNSt7__cxx1112basic_stringIcSt11char_traitsIcESaIcEE12_M_constructIPcEEvT_S7_St20forward_iterator_tag.isra.0>
    14a4:	ba 09 00 00 00       	mov    $0x9,%edx
    14a9:	48 8d 35 e5 0b 00 00 	lea    0xbe5(%rip),%rsi        # 2095 <_IO_stdin_used+0x95>
    14b0:	48 8d 3d 09 2c 00 00 	lea    0x2c09(%rip),%rdi        # 40c0 <_ZSt4cout@@GLIBCXX_3.4>
    14b7:	e8 04 fc ff ff       	callq  10c0 <_ZSt16__ostream_insertIcSt11char_traitsIcEERSt13basic_ostreamIT_T0_ES6_PKS3_l@plt>
    14bc:	48 8b 94 24 18 01 00 	mov    0x118(%rsp),%rdx
    14c3:	00 
    14c4:	48 8b b4 24 10 01 00 	mov    0x110(%rsp),%rsi
    14cb:	00 
    14cc:	48 8d 3d ed 2b 00 00 	lea    0x2bed(%rip),%rdi        # 40c0 <_ZSt4cout@@GLIBCXX_3.4>
    14d3:	e8 e8 fb ff ff       	callq  10c0 <_ZSt16__ostream_insertIcSt11char_traitsIcEERSt13basic_ostreamIT_T0_ES6_PKS3_l@plt>
    14d8:	48 8b 94 24 f8 00 00 	mov    0xf8(%rsp),%rdx
    14df:	00 
    14e0:	b8 0a 00 00 00       	mov    $0xa,%eax
    14e5:	4c 89 ff             	mov    %r15,%rdi
    14e8:	48 8b b4 24 f0 00 00 	mov    0xf0(%rsp),%rsi
    14ef:	00 
    14f0:	48 8d 9c 24 60 01 00 	lea    0x160(%rsp),%rbx
    14f7:	00 
    14f8:	48 83 fa 0a          	cmp    $0xa,%rdx
    14fc:	48 89 9c 24 50 01 00 	mov    %rbx,0x150(%rsp)
    1503:	00 
    1504:	48 0f 47 d0          	cmova  %rax,%rdx
    1508:	48 01 f2             	add    %rsi,%rdx
    150b:	e8 00 04 00 00       	callq  1910 <_ZNSt7__cxx1112basic_stringIcSt11char_traitsIcESaIcEE12_M_constructIPKcEEvT_S8_St20forward_iterator_tag.isra.0>
    1510:	48 8b 94 24 58 01 00 	mov    0x158(%rsp),%rdx
    1517:	00 
    1518:	48 8b b4 24 50 01 00 	mov    0x150(%rsp),%rsi
    151f:	00 
    1520:	4c 89 ef             	mov    %r13,%rdi
    1523:	e8 08 fb ff ff       	callq  1030 <_ZNSt7__cxx1112basic_stringIcSt11char_traitsIcESaIcEE9_M_appendEPKcm@plt>
    1528:	48 8b bc 24 50 01 00 	mov    0x150(%rsp),%rdi
    152f:	00 
    1530:	48 39 df             	cmp    %rbx,%rdi
    1533:	74 11                	je     1546 <main+0x3b6>
    1535:	48 8b 84 24 60 01 00 	mov    0x160(%rsp),%rax
    153c:	00 
    153d:	48 8d 70 01          	lea    0x1(%rax),%rsi
    1541:	e8 6a fb ff ff       	callq  10b0 <_ZdlPvm@plt>
    1546:	ba 09 00 00 00       	mov    $0x9,%edx
    154b:	48 8d 35 43 0b 00 00 	lea    0xb43(%rip),%rsi        # 2095 <_IO_stdin_used+0x95>
    1552:	48 8d 3d 67 2b 00 00 	lea    0x2b67(%rip),%rdi        # 40c0 <_ZSt4cout@@GLIBCXX_3.4>
    1559:	e8 62 fb ff ff       	callq  10c0 <_ZSt16__ostream_insertIcSt11char_traitsIcEERSt13basic_ostreamIT_T0_ES6_PKS3_l@plt>
    155e:	48 8b 94 24 18 01 00 	mov    0x118(%rsp),%rdx
    1565:	00 
    1566:	48 8b b4 24 10 01 00 	mov    0x110(%rsp),%rsi
    156d:	00 
    156e:	48 8d 3d 4b 2b 00 00 	lea    0x2b4b(%rip),%rdi        # 40c0 <_ZSt4cout@@GLIBCXX_3.4>
    1575:	e8 46 fb ff ff       	callq  10c0 <_ZSt16__ostream_insertIcSt11char_traitsIcEERSt13basic_ostreamIT_T0_ES6_PKS3_l@plt>
    157a:	48 8b b4 24 10 01 00 	mov    0x110(%rsp),%rsi
    1581:	00 
    1582:	48 8b 94 24 18 01 00 	mov    0x118(%rsp),%rdx
    1589:	00 
    158a:	4c 8d b4 24 30 01 00 	lea    0x130(%rsp),%r14
    1591:	00 
    1592:	48 8d 84 24 40 01 00 	lea    0x140(%rsp),%rax
    1599:	00 
    159a:	4c 89 f7             	mov    %r14,%rdi
    159d:	48 89 44 24 20       	mov    %rax,0x20(%rsp)
    15a2:	48 01 f2             	add    %rsi,%rdx
    15a5:	48 89 84 24 30 01 00 	mov    %rax,0x130(%rsp)
    15ac:	00 
    15ad:	e8 fe 03 00 00       	callq  19b0 <_ZNSt7__cxx1112basic_stringIcSt11char_traitsIcESaIcEE12_M_constructIPcEEvT_S7_St20forward_iterator_tag.isra.0>
    15b2:	ba 09 00 00 00       	mov    $0x9,%edx
    15b7:	48 8d 35 e1 0a 00 00 	lea    0xae1(%rip),%rsi        # 209f <_IO_stdin_used+0x9f>
    15be:	48 8d 3d fb 2a 00 00 	lea    0x2afb(%rip),%rdi        # 40c0 <_ZSt4cout@@GLIBCXX_3.4>
    15c5:	e8 f6 fa ff ff       	callq  10c0 <_ZSt16__ostream_insertIcSt11char_traitsIcEERSt13basic_ostreamIT_T0_ES6_PKS3_l@plt>
    15ca:	48 8b 94 24 38 01 00 	mov    0x138(%rsp),%rdx
    15d1:	00 
    15d2:	48 8b b4 24 30 01 00 	mov    0x130(%rsp),%rsi
    15d9:	00 
    15da:	48 8d 3d df 2a 00 00 	lea    0x2adf(%rip),%rdi        # 40c0 <_ZSt4cout@@GLIBCXX_3.4>
    15e1:	e8 da fa ff ff       	callq  10c0 <_ZSt16__ostream_insertIcSt11char_traitsIcEERSt13basic_ostreamIT_T0_ES6_PKS3_l@plt>
    15e6:	48 8b 54 24 78       	mov    0x78(%rsp),%rdx
    15eb:	b8 14 00 00 00       	mov    $0x14,%eax
    15f0:	48 8b 74 24 70       	mov    0x70(%rsp),%rsi
    15f5:	4c 89 ff             	mov    %r15,%rdi
    15f8:	48 89 9c 24 50 01 00 	mov    %rbx,0x150(%rsp)
    15ff:	00 
    1600:	48 83 fa 14          	cmp    $0x14,%rdx
    1604:	48 0f 47 d0          	cmova  %rax,%rdx
    1608:	48 01 f2             	add    %rsi,%rdx
    160b:	e8 00 03 00 00       	callq  1910 <_ZNSt7__cxx1112basic_stringIcSt11char_traitsIcESaIcEE12_M_constructIPKcEEvT_S8_St20forward_iterator_tag.isra.0>
    1610:	48 8b 94 24 58 01 00 	mov    0x158(%rsp),%rdx
    1617:	00 
    1618:	48 8b b4 24 50 01 00 	mov    0x150(%rsp),%rsi
    161f:	00 
    1620:	4c 89 f7             	mov    %r14,%rdi
    1623:	e8 08 fa ff ff       	callq  1030 <_ZNSt7__cxx1112basic_stringIcSt11char_traitsIcESaIcEE9_M_appendEPKcm@plt>
    1628:	48 8b bc 24 50 01 00 	mov    0x150(%rsp),%rdi
    162f:	00 
    1630:	48 39 df             	cmp    %rbx,%rdi
    1633:	74 11                	je     1646 <main+0x4b6>
    1635:	48 8b 84 24 60 01 00 	mov    0x160(%rsp),%rax
    163c:	00 
    163d:	48 8d 70 01          	lea    0x1(%rax),%rsi
    1641:	e8 6a fa ff ff       	callq  10b0 <_ZdlPvm@plt>
    1646:	ba 09 00 00 00       	mov    $0x9,%edx
    164b:	48 8d 35 4d 0a 00 00 	lea    0xa4d(%rip),%rsi        # 209f <_IO_stdin_used+0x9f>
    1652:	48 8d 3d 67 2a 00 00 	lea    0x2a67(%rip),%rdi        # 40c0 <_ZSt4cout@@GLIBCXX_3.4>
    1659:	e8 62 fa ff ff       	callq  10c0 <_ZSt16__ostream_insertIcSt11char_traitsIcEERSt13basic_ostreamIT_T0_ES6_PKS3_l@plt>
    165e:	48 8b 94 24 38 01 00 	mov    0x138(%rsp),%rdx
    1665:	00 
    1666:	48 8b b4 24 30 01 00 	mov    0x130(%rsp),%rsi
    166d:	00 
    166e:	48 8d 3d 4b 2a 00 00 	lea    0x2a4b(%rip),%rdi        # 40c0 <_ZSt4cout@@GLIBCXX_3.4>
    1675:	e8 46 fa ff ff       	callq  10c0 <_ZSt16__ostream_insertIcSt11char_traitsIcEERSt13basic_ostreamIT_T0_ES6_PKS3_l@plt>
    167a:	48 8b bc 24 30 01 00 	mov    0x130(%rsp),%rdi
    1681:	00 
    1682:	48 3b 7c 24 20       	cmp    0x20(%rsp),%rdi
    1687:	74 11                	je     169a <main+0x50a>
    1689:	48 8b 84 24 40 01 00 	mov    0x140(%rsp),%rax
    1690:	00 
    1691:	48 8d 70 01          	lea    0x1(%rax),%rsi
    1695:	e8 16 fa ff ff       	callq  10b0 <_ZdlPvm@plt>
    169a:	48 8b bc 24 10 01 00 	mov    0x110(%rsp),%rdi
    16a1:	00 
    16a2:	48 3b 7c 24 18       	cmp    0x18(%rsp),%rdi
    16a7:	74 11                	je     16ba <main+0x52a>
    16a9:	48 8b 84 24 20 01 00 	mov    0x120(%rsp),%rax
    16b0:	00 
    16b1:	48 8d 70 01          	lea    0x1(%rax),%rsi
    16b5:	e8 f6 f9 ff ff       	callq  10b0 <_ZdlPvm@plt>
    16ba:	48 8b bc 24 f0 00 00 	mov    0xf0(%rsp),%rdi
    16c1:	00 
    16c2:	48 3b 7c 24 10       	cmp    0x10(%rsp),%rdi
    16c7:	74 11                	je     16da <main+0x54a>
    16c9:	48 8b 84 24 00 01 00 	mov    0x100(%rsp),%rax
    16d0:	00 
    16d1:	48 8d 70 01          	lea    0x1(%rax),%rsi
    16d5:	e8 d6 f9 ff ff       	callq  10b0 <_ZdlPvm@plt>
    16da:	48 8b bc 24 d0 00 00 	mov    0xd0(%rsp),%rdi
    16e1:	00 
    16e2:	48 3b 7c 24 30       	cmp    0x30(%rsp),%rdi
    16e7:	74 11                	je     16fa <main+0x56a>
    16e9:	48 8b 84 24 e0 00 00 	mov    0xe0(%rsp),%rax
    16f0:	00 
    16f1:	48 8d 70 01          	lea    0x1(%rax),%rsi
    16f5:	e8 b6 f9 ff ff       	callq  10b0 <_ZdlPvm@plt>
    16fa:	48 8b bc 24 b0 00 00 	mov    0xb0(%rsp),%rdi
    1701:	00 
    1702:	48 3b 7c 24 28       	cmp    0x28(%rsp),%rdi
    1707:	74 11                	je     171a <main+0x58a>
    1709:	48 8b 84 24 c0 00 00 	mov    0xc0(%rsp),%rax
    1710:	00 
    1711:	48 8d 70 01          	lea    0x1(%rax),%rsi
    1715:	e8 96 f9 ff ff       	callq  10b0 <_ZdlPvm@plt>
    171a:	48 8b bc 24 90 00 00 	mov    0x90(%rsp),%rdi
    1721:	00 
    1722:	48 3b 7c 24 08       	cmp    0x8(%rsp),%rdi
    1727:	74 11                	je     173a <main+0x5aa>
    1729:	48 8b 84 24 a0 00 00 	mov    0xa0(%rsp),%rax
    1730:	00 
    1731:	48 8d 70 01          	lea    0x1(%rax),%rsi
    1735:	e8 76 f9 ff ff       	callq  10b0 <_ZdlPvm@plt>
    173a:	83 6c 24 44 01       	subl   $0x1,0x44(%rsp)
    173f:	0f 85 3b fb ff ff    	jne    1280 <main+0xf0>
    1745:	e8 f6 f8 ff ff       	callq  1040 <clock@plt>
    174a:	48 8d 35 58 09 00 00 	lea    0x958(%rip),%rsi        # 20a9 <_IO_stdin_used+0xa9>
    1751:	48 8d 3d 68 29 00 00 	lea    0x2968(%rip),%rdi        # 40c0 <_ZSt4cout@@GLIBCXX_3.4>
    1758:	48 89 c5             	mov    %rax,%rbp
    175b:	e8 40 f9 ff ff       	callq  10a0 <_ZStlsISt11char_traitsIcEERSt13basic_ostreamIcT_ES5_PKc@plt>
    1760:	48 89 c7             	mov    %rax,%rdi
    1763:	48 89 ee             	mov    %rbp,%rsi
    1766:	e8 25 f9 ff ff       	callq  1090 <_ZNSo9_M_insertIlEERSoT_@plt>
    176b:	48 89 c7             	mov    %rax,%rdi
    176e:	ba 01 00 00 00       	mov    $0x1,%edx
    1773:	4c 89 fe             	mov    %r15,%rsi
    1776:	c6 84 24 50 01 00 00 	movb   $0xa,0x150(%rsp)
    177d:	0a 
    177e:	e8 3d f9 ff ff       	callq  10c0 <_ZSt16__ostream_insertIcSt11char_traitsIcEERSt13basic_ostreamIT_T0_ES6_PKS3_l@plt>
    1783:	48 8b 7c 24 58       	mov    0x58(%rsp),%rdi
    1788:	e8 53 f9 ff ff       	callq  10e0 <_ZNSt7__cxx1112basic_stringIcSt11char_traitsIcESaIcEE10_M_disposeEv@plt>
    178d:	48 81 c4 78 01 00 00 	add    $0x178,%rsp
    1794:	31 c0                	xor    %eax,%eax
    1796:	5b                   	pop    %rbx
    1797:	5d                   	pop    %rbp
    1798:	41 5c                	pop    %r12
    179a:	41 5d                	pop    %r13
    179c:	41 5e                	pop    %r14
    179e:	41 5f                	pop    %r15
    17a0:	c3                   	retq   
    17a1:	48 89 c5             	mov    %rax,%rbp
    17a4:	e9 c6 f9 ff ff       	jmpq   116f <main.cold+0x3f>
    17a9:	48 89 c3             	mov    %rax,%rbx
    17ac:	e9 7f f9 ff ff       	jmpq   1130 <main.cold>
    17b1:	48 89 c3             	mov    %rax,%rbx
    17b4:	e9 8f f9 ff ff       	jmpq   1148 <main.cold+0x18>
    17b9:	48 89 c3             	mov    %rax,%rbx
    17bc:	e9 c0 f9 ff ff       	jmpq   1181 <main.cold+0x51>
    17c1:	48 89 c3             	mov    %rax,%rbx
    17c4:	e9 91 f9 ff ff       	jmpq   115a <main.cold+0x2a>
    17c9:	48 89 c3             	mov    %rax,%rbx
    17cc:	e9 67 f9 ff ff       	jmpq   1138 <main.cold+0x8>
    17d1:	48 89 c3             	mov    %rax,%rbx
    17d4:	e9 77 f9 ff ff       	jmpq   1150 <main.cold+0x20>
    17d9:	48 89 c3             	mov    %rax,%rbx
    17dc:	e9 5f f9 ff ff       	jmpq   1140 <main.cold+0x10>
    17e1:	48 89 c5             	mov    %rax,%rbp
    17e4:	e9 7c f9 ff ff       	jmpq   1165 <main.cold+0x35>
    17e9:	0f 1f 80 00 00 00 00 	nopl   0x0(%rax)

00000000000017f0 <_GLOBAL__sub_I_main>:
    17f0:	48 83 ec 08          	sub    $0x8,%rsp
    17f4:	48 8d 3d d6 29 00 00 	lea    0x29d6(%rip),%rdi        # 41d1 <_ZStL8__ioinit>
    17fb:	e8 f0 f8 ff ff       	callq  10f0 <_ZNSt8ios_base4InitC1Ev@plt>
    1800:	48 8b 3d f1 27 00 00 	mov    0x27f1(%rip),%rdi        # 3ff8 <_ZNSt8ios_base4InitD1Ev@GLIBCXX_3.4>
    1807:	48 83 c4 08          	add    $0x8,%rsp
    180b:	48 8d 15 86 28 00 00 	lea    0x2886(%rip),%rdx        # 4098 <__dso_handle>
    1812:	48 8d 35 b8 29 00 00 	lea    0x29b8(%rip),%rsi        # 41d1 <_ZStL8__ioinit>
    1819:	e9 62 f8 ff ff       	jmpq   1080 <__cxa_atexit@plt>
    181e:	66 90                	xchg   %ax,%ax

0000000000001820 <_start>:
    1820:	31 ed                	xor    %ebp,%ebp
    1822:	49 89 d1             	mov    %rdx,%r9
    1825:	5e                   	pop    %rsi
    1826:	48 89 e2             	mov    %rsp,%rdx
    1829:	48 83 e4 f0          	and    $0xfffffffffffffff0,%rsp
    182d:	50                   	push   %rax
    182e:	54                   	push   %rsp
    182f:	4c 8d 05 7a 02 00 00 	lea    0x27a(%rip),%r8        # 1ab0 <__libc_csu_fini>
    1836:	48 8d 0d 13 02 00 00 	lea    0x213(%rip),%rcx        # 1a50 <__libc_csu_init>
    183d:	48 8d 3d 4c f9 ff ff 	lea    -0x6b4(%rip),%rdi        # 1190 <main>
    1844:	ff 15 96 27 00 00    	callq  *0x2796(%rip)        # 3fe0 <__libc_start_main@GLIBC_2.2.5>
    184a:	f4                   	hlt    
    184b:	0f 1f 44 00 00       	nopl   0x0(%rax,%rax,1)

0000000000001850 <deregister_tm_clones>:
    1850:	48 8d 3d 51 28 00 00 	lea    0x2851(%rip),%rdi        # 40a8 <__TMC_END__>
    1857:	48 8d 05 4a 28 00 00 	lea    0x284a(%rip),%rax        # 40a8 <__TMC_END__>
    185e:	48 39 f8             	cmp    %rdi,%rax
    1861:	74 15                	je     1878 <deregister_tm_clones+0x28>
    1863:	48 8b 05 6e 27 00 00 	mov    0x276e(%rip),%rax        # 3fd8 <_ITM_deregisterTMCloneTable>
    186a:	48 85 c0             	test   %rax,%rax
    186d:	74 09                	je     1878 <deregister_tm_clones+0x28>
    186f:	ff e0                	jmpq   *%rax
    1871:	0f 1f 80 00 00 00 00 	nopl   0x0(%rax)
    1878:	c3                   	retq   
    1879:	0f 1f 80 00 00 00 00 	nopl   0x0(%rax)

0000000000001880 <register_tm_clones>:
    1880:	48 8d 3d 21 28 00 00 	lea    0x2821(%rip),%rdi        # 40a8 <__TMC_END__>
    1887:	48 8d 35 1a 28 00 00 	lea    0x281a(%rip),%rsi        # 40a8 <__TMC_END__>
    188e:	48 29 fe             	sub    %rdi,%rsi
    1891:	48 89 f0             	mov    %rsi,%rax
    1894:	48 c1 ee 3f          	shr    $0x3f,%rsi
    1898:	48 c1 f8 03          	sar    $0x3,%rax
    189c:	48 01 c6             	add    %rax,%rsi
    189f:	48 d1 fe             	sar    %rsi
    18a2:	74 14                	je     18b8 <register_tm_clones+0x38>
    18a4:	48 8b 05 45 27 00 00 	mov    0x2745(%rip),%rax        # 3ff0 <_ITM_registerTMCloneTable>
    18ab:	48 85 c0             	test   %rax,%rax
    18ae:	74 08                	je     18b8 <register_tm_clones+0x38>
    18b0:	ff e0                	jmpq   *%rax
    18b2:	66 0f 1f 44 00 00    	nopw   0x0(%rax,%rax,1)
    18b8:	c3                   	retq   
    18b9:	0f 1f 80 00 00 00 00 	nopl   0x0(%rax)

00000000000018c0 <__do_global_dtors_aux>:
    18c0:	80 3d 09 29 00 00 00 	cmpb   $0x0,0x2909(%rip)        # 41d0 <completed.0>
    18c7:	75 2f                	jne    18f8 <__do_global_dtors_aux+0x38>
    18c9:	55                   	push   %rbp
    18ca:	48 83 3d fe 26 00 00 	cmpq   $0x0,0x26fe(%rip)        # 3fd0 <__cxa_finalize@GLIBC_2.2.5>
    18d1:	00 
    18d2:	48 89 e5             	mov    %rsp,%rbp
    18d5:	74 0c                	je     18e3 <__do_global_dtors_aux+0x23>
    18d7:	48 8b 3d ba 27 00 00 	mov    0x27ba(%rip),%rdi        # 4098 <__dso_handle>
    18de:	e8 3d f8 ff ff       	callq  1120 <__cxa_finalize@plt>
    18e3:	e8 68 ff ff ff       	callq  1850 <deregister_tm_clones>
    18e8:	c6 05 e1 28 00 00 01 	movb   $0x1,0x28e1(%rip)        # 41d0 <completed.0>
    18ef:	5d                   	pop    %rbp
    18f0:	c3                   	retq   
    18f1:	0f 1f 80 00 00 00 00 	nopl   0x0(%rax)
    18f8:	c3                   	retq   
    18f9:	0f 1f 80 00 00 00 00 	nopl   0x0(%rax)

0000000000001900 <frame_dummy>:
    1900:	e9 7b ff ff ff       	jmpq   1880 <register_tm_clones>
    1905:	66 2e 0f 1f 84 00 00 	nopw   %cs:0x0(%rax,%rax,1)
    190c:	00 00 00 
    190f:	90                   	nop

0000000000001910 <_ZNSt7__cxx1112basic_stringIcSt11char_traitsIcESaIcEE12_M_constructIPKcEEvT_S8_St20forward_iterator_tag.isra.0>:
    1910:	41 54                	push   %r12
    1912:	49 89 d4             	mov    %rdx,%r12
    1915:	55                   	push   %rbp
    1916:	48 89 f5             	mov    %rsi,%rbp
    1919:	53                   	push   %rbx
    191a:	48 89 fb             	mov    %rdi,%rbx
    191d:	48 83 ec 10          	sub    $0x10,%rsp
    1921:	48 85 d2             	test   %rdx,%rdx
    1924:	74 05                	je     192b <_ZNSt7__cxx1112basic_stringIcSt11char_traitsIcESaIcEE12_M_constructIPKcEEvT_S8_St20forward_iterator_tag.isra.0+0x1b>
    1926:	48 85 f6             	test   %rsi,%rsi
    1929:	74 78                	je     19a3 <_ZNSt7__cxx1112basic_stringIcSt11char_traitsIcESaIcEE12_M_constructIPKcEEvT_S8_St20forward_iterator_tag.isra.0+0x93>
    192b:	49 29 ec             	sub    %rbp,%r12
    192e:	4c 89 64 24 08       	mov    %r12,0x8(%rsp)
    1933:	49 83 fc 0f          	cmp    $0xf,%r12
    1937:	77 37                	ja     1970 <_ZNSt7__cxx1112basic_stringIcSt11char_traitsIcESaIcEE12_M_constructIPKcEEvT_S8_St20forward_iterator_tag.isra.0+0x60>
    1939:	48 8b 3b             	mov    (%rbx),%rdi
    193c:	49 83 fc 01          	cmp    $0x1,%r12
    1940:	75 26                	jne    1968 <_ZNSt7__cxx1112basic_stringIcSt11char_traitsIcESaIcEE12_M_constructIPKcEEvT_S8_St20forward_iterator_tag.isra.0+0x58>
    1942:	0f b6 45 00          	movzbl 0x0(%rbp),%eax
    1946:	88 07                	mov    %al,(%rdi)
    1948:	4c 8b 64 24 08       	mov    0x8(%rsp),%r12
    194d:	48 8b 3b             	mov    (%rbx),%rdi
    1950:	4c 89 63 08          	mov    %r12,0x8(%rbx)
    1954:	42 c6 04 27 00       	movb   $0x0,(%rdi,%r12,1)
    1959:	48 83 c4 10          	add    $0x10,%rsp
    195d:	5b                   	pop    %rbx
    195e:	5d                   	pop    %rbp
    195f:	41 5c                	pop    %r12
    1961:	c3                   	retq   
    1962:	66 0f 1f 44 00 00    	nopw   0x0(%rax,%rax,1)
    1968:	4d 85 e4             	test   %r12,%r12
    196b:	74 e3                	je     1950 <_ZNSt7__cxx1112basic_stringIcSt11char_traitsIcESaIcEE12_M_constructIPKcEEvT_S8_St20forward_iterator_tag.isra.0+0x40>
    196d:	eb 1f                	jmp    198e <_ZNSt7__cxx1112basic_stringIcSt11char_traitsIcESaIcEE12_M_constructIPKcEEvT_S8_St20forward_iterator_tag.isra.0+0x7e>
    196f:	90                   	nop
    1970:	48 89 df             	mov    %rbx,%rdi
    1973:	48 8d 74 24 08       	lea    0x8(%rsp),%rsi
    1978:	31 d2                	xor    %edx,%edx
    197a:	e8 91 f7 ff ff       	callq  1110 <_ZNSt7__cxx1112basic_stringIcSt11char_traitsIcESaIcEE9_M_createERmm@plt>
    197f:	48 89 03             	mov    %rax,(%rbx)
    1982:	48 89 c7             	mov    %rax,%rdi
    1985:	48 8b 44 24 08       	mov    0x8(%rsp),%rax
    198a:	48 89 43 10          	mov    %rax,0x10(%rbx)
    198e:	4c 89 e2             	mov    %r12,%rdx
    1991:	48 89 ee             	mov    %rbp,%rsi
    1994:	e8 d7 f6 ff ff       	callq  1070 <memcpy@plt>
    1999:	4c 8b 64 24 08       	mov    0x8(%rsp),%r12
    199e:	48 8b 3b             	mov    (%rbx),%rdi
    19a1:	eb ad                	jmp    1950 <_ZNSt7__cxx1112basic_stringIcSt11char_traitsIcESaIcEE12_M_constructIPKcEEvT_S8_St20forward_iterator_tag.isra.0+0x40>
    19a3:	48 8d 3d 5e 06 00 00 	lea    0x65e(%rip),%rdi        # 2008 <_IO_stdin_used+0x8>
    19aa:	e8 b1 f6 ff ff       	callq  1060 <_ZSt19__throw_logic_errorPKc@plt>
    19af:	90                   	nop

00000000000019b0 <_ZNSt7__cxx1112basic_stringIcSt11char_traitsIcESaIcEE12_M_constructIPcEEvT_S7_St20forward_iterator_tag.isra.0>:
    19b0:	41 54                	push   %r12
    19b2:	49 89 d4             	mov    %rdx,%r12
    19b5:	55                   	push   %rbp
    19b6:	48 89 f5             	mov    %rsi,%rbp
    19b9:	53                   	push   %rbx
    19ba:	48 89 fb             	mov    %rdi,%rbx
    19bd:	48 83 ec 10          	sub    $0x10,%rsp
    19c1:	48 85 d2             	test   %rdx,%rdx
    19c4:	74 05                	je     19cb <_ZNSt7__cxx1112basic_stringIcSt11char_traitsIcESaIcEE12_M_constructIPcEEvT_S7_St20forward_iterator_tag.isra.0+0x1b>
    19c6:	48 85 f6             	test   %rsi,%rsi
    19c9:	74 78                	je     1a43 <_ZNSt7__cxx1112basic_stringIcSt11char_traitsIcESaIcEE12_M_constructIPcEEvT_S7_St20forward_iterator_tag.isra.0+0x93>
    19cb:	49 29 ec             	sub    %rbp,%r12
    19ce:	4c 89 64 24 08       	mov    %r12,0x8(%rsp)
    19d3:	49 83 fc 0f          	cmp    $0xf,%r12
    19d7:	77 37                	ja     1a10 <_ZNSt7__cxx1112basic_stringIcSt11char_traitsIcESaIcEE12_M_constructIPcEEvT_S7_St20forward_iterator_tag.isra.0+0x60>
    19d9:	48 8b 3b             	mov    (%rbx),%rdi
    19dc:	49 83 fc 01          	cmp    $0x1,%r12
    19e0:	75 26                	jne    1a08 <_ZNSt7__cxx1112basic_stringIcSt11char_traitsIcESaIcEE12_M_constructIPcEEvT_S7_St20forward_iterator_tag.isra.0+0x58>
    19e2:	0f b6 45 00          	movzbl 0x0(%rbp),%eax
    19e6:	88 07                	mov    %al,(%rdi)
    19e8:	4c 8b 64 24 08       	mov    0x8(%rsp),%r12
    19ed:	48 8b 3b             	mov    (%rbx),%rdi
    19f0:	4c 89 63 08          	mov    %r12,0x8(%rbx)
    19f4:	42 c6 04 27 00       	movb   $0x0,(%rdi,%r12,1)
    19f9:	48 83 c4 10          	add    $0x10,%rsp
    19fd:	5b                   	pop    %rbx
    19fe:	5d                   	pop    %rbp
    19ff:	41 5c                	pop    %r12
    1a01:	c3                   	retq   
    1a02:	66 0f 1f 44 00 00    	nopw   0x0(%rax,%rax,1)
    1a08:	4d 85 e4             	test   %r12,%r12
    1a0b:	74 e3                	je     19f0 <_ZNSt7__cxx1112basic_stringIcSt11char_traitsIcESaIcEE12_M_constructIPcEEvT_S7_St20forward_iterator_tag.isra.0+0x40>
    1a0d:	eb 1f                	jmp    1a2e <_ZNSt7__cxx1112basic_stringIcSt11char_traitsIcESaIcEE12_M_constructIPcEEvT_S7_St20forward_iterator_tag.isra.0+0x7e>
    1a0f:	90                   	nop
    1a10:	48 89 df             	mov    %rbx,%rdi
    1a13:	48 8d 74 24 08       	lea    0x8(%rsp),%rsi
    1a18:	31 d2                	xor    %edx,%edx
    1a1a:	e8 f1 f6 ff ff       	callq  1110 <_ZNSt7__cxx1112basic_stringIcSt11char_traitsIcESaIcEE9_M_createERmm@plt>
    1a1f:	48 89 03             	mov    %rax,(%rbx)
    1a22:	48 89 c7             	mov    %rax,%rdi
    1a25:	48 8b 44 24 08       	mov    0x8(%rsp),%rax
    1a2a:	48 89 43 10          	mov    %rax,0x10(%rbx)
    1a2e:	4c 89 e2             	mov    %r12,%rdx
    1a31:	48 89 ee             	mov    %rbp,%rsi
    1a34:	e8 37 f6 ff ff       	callq  1070 <memcpy@plt>
    1a39:	4c 8b 64 24 08       	mov    0x8(%rsp),%r12
    1a3e:	48 8b 3b             	mov    (%rbx),%rdi
    1a41:	eb ad                	jmp    19f0 <_ZNSt7__cxx1112basic_stringIcSt11char_traitsIcESaIcEE12_M_constructIPcEEvT_S7_St20forward_iterator_tag.isra.0+0x40>
    1a43:	48 8d 3d be 05 00 00 	lea    0x5be(%rip),%rdi        # 2008 <_IO_stdin_used+0x8>
    1a4a:	e8 11 f6 ff ff       	callq  1060 <_ZSt19__throw_logic_errorPKc@plt>
    1a4f:	90                   	nop

0000000000001a50 <__libc_csu_init>:
    1a50:	41 57                	push   %r15
    1a52:	4c 8d 3d 5f 23 00 00 	lea    0x235f(%rip),%r15        # 3db8 <__frame_dummy_init_array_entry>
    1a59:	41 56                	push   %r14
    1a5b:	49 89 d6             	mov    %rdx,%r14
    1a5e:	41 55                	push   %r13
    1a60:	49 89 f5             	mov    %rsi,%r13
    1a63:	41 54                	push   %r12
    1a65:	41 89 fc             	mov    %edi,%r12d
    1a68:	55                   	push   %rbp
    1a69:	48 8d 2d 58 23 00 00 	lea    0x2358(%rip),%rbp        # 3dc8 <__do_global_dtors_aux_fini_array_entry>
    1a70:	53                   	push   %rbx
    1a71:	4c 29 fd             	sub    %r15,%rbp
    1a74:	48 83 ec 08          	sub    $0x8,%rsp
    1a78:	e8 83 f5 ff ff       	callq  1000 <_init>
    1a7d:	48 c1 fd 03          	sar    $0x3,%rbp
    1a81:	74 1b                	je     1a9e <__libc_csu_init+0x4e>
    1a83:	31 db                	xor    %ebx,%ebx
    1a85:	0f 1f 00             	nopl   (%rax)
    1a88:	4c 89 f2             	mov    %r14,%rdx
    1a8b:	4c 89 ee             	mov    %r13,%rsi
    1a8e:	44 89 e7             	mov    %r12d,%edi
    1a91:	41 ff 14 df          	callq  *(%r15,%rbx,8)
    1a95:	48 83 c3 01          	add    $0x1,%rbx
    1a99:	48 39 dd             	cmp    %rbx,%rbp
    1a9c:	75 ea                	jne    1a88 <__libc_csu_init+0x38>
    1a9e:	48 83 c4 08          	add    $0x8,%rsp
    1aa2:	5b                   	pop    %rbx
    1aa3:	5d                   	pop    %rbp
    1aa4:	41 5c                	pop    %r12
    1aa6:	41 5d                	pop    %r13
    1aa8:	41 5e                	pop    %r14
    1aaa:	41 5f                	pop    %r15
    1aac:	c3                   	retq   
    1aad:	0f 1f 00             	nopl   (%rax)

0000000000001ab0 <__libc_csu_fini>:
    1ab0:	c3                   	retq   

Disassembly of section .fini:

0000000000001ab4 <_fini>:
    1ab4:	48 83 ec 08          	sub    $0x8,%rsp
    1ab8:	48 83 c4 08          	add    $0x8,%rsp
    1abc:	c3                   	retq   
